target datalayout = "e-m:e-p270:32:32-p271:32:32-p272:64:64-i64:64-i128:128-f80:128-n8:16:32:64-S128"
target triple = "x86_64-pc-linux-gnu"

%struct.Curl_multi = type { i32, i32, i32, %struct.Curl_llist, %struct.Curl_llist, %struct.Curl_llist, %struct.Curl_llist, i64, ptr, ptr, ptr, ptr, %struct.Curl_hash, ptr, %struct.PslCache, ptr, ptr, i64, ptr, i64, ptr, i64, %struct.Curl_hash, %struct.Curl_hash, %struct.cpool, i64, i64, ptr, ptr, i64, %struct.curltime, [2 x i32], i32, i32, i8, i8 }
%struct.Curl_llist = type { ptr, ptr, ptr, i64 }
%struct.PslCache = type { ptr, i64, i8 }
%struct.Curl_hash = type { ptr, ptr, ptr, ptr, i64, i64 }
%struct.cpool = type { %struct.Curl_hash, i64, i64, i64, %struct.curltime, %struct.Curl_llist, ptr, ptr, ptr, ptr, i8 }
%struct.curltime = type { i64, i32 }
%struct.Curl_llist_node = type { ptr, ptr, ptr, ptr }
%struct.Curl_easy = type { i32, i64, i64, ptr, %struct.Curl_llist_node, %struct.Curl_llist_node, i32, i32, %struct.Curl_message, %struct.easy_pollset, %struct.Names, ptr, ptr, ptr, ptr, %struct.SingleRequest, %struct.UserDefined, ptr, ptr, ptr, %struct.Progress, %struct.UrlState, ptr, %struct.PureInfo, %struct.curl_tlssessioninfo }
%struct.Curl_message = type { %struct.Curl_llist_node, %struct.CURLMsg }
%struct.CURLMsg = type { i32, ptr, %union.anon }
%union.anon = type { ptr }
%struct.easy_pollset = type { [5 x i32], i32, [5 x i8] }
%struct.Names = type { ptr, i32 }
%struct.SingleRequest = type <{ i64, i64, i64, i64, %struct.curltime, i32, i32, i32, i32, i64, i32, i32, i8, i8, [2 x i8], i32, ptr, ptr, %struct.bufq, i64, i64, ptr, ptr, %union.anon.0, ptr, i8, i32, [3 x i8] }>
%struct.bufq = type { ptr, ptr, ptr, ptr, i64, i64, i64, i32 }
%union.anon.0 = type { ptr }
%struct.UserDefined = type <{ ptr, ptr, ptr, ptr, ptr, ptr, i64, i64, i64, ptr, ptr, i64, ptr, ptr, ptr, ptr, ptr, ptr, ptr, ptr, ptr, ptr, ptr, ptr, ptr, ptr, ptr, ptr, ptr, ptr, ptr, ptr, ptr, ptr, ptr, i64, i64, i64, i64, i64, i64, i64, i64, i64, ptr, ptr, %struct.curl_mimepart, ptr, ptr, ptr, i64, %struct.ssl_config_data, %struct.ssl_config_data, ptr, i16, i8, i8, %struct.ssl_general_config, i32, i32, i32, [4 x i8], ptr, ptr, i64, i32, i8, i8, i8, i8, ptr, ptr, ptr, i32, [4 x i8], [74 x ptr], [8 x ptr], i32, i32, i32, [4 x i8], ptr, i32, [4 x i8], ptr, ptr, ptr, ptr, ptr, i32, i32, i32, i32, i32, i32, i32, i32, i64, ptr, ptr, i64, ptr, i64, ptr, ptr, ptr, ptr, i32, i16, i16, i16, i8, i8, i8, i8, i8, i8, i8, i8, i64, [6 x i8] }>
%struct.curl_mimepart = type { ptr, ptr, i32, i32, ptr, ptr, ptr, ptr, ptr, ptr, ptr, ptr, ptr, ptr, ptr, i64, %struct.mime_state, ptr, %struct.mime_encoder_state, i64 }
%struct.mime_state = type { i32, ptr, i64 }
%struct.mime_encoder_state = type { i64, i64, i64, [256 x i8] }
%struct.ssl_config_data = type { %struct.ssl_primary_config, i64, ptr, ptr, ptr, ptr, ptr, ptr, ptr, i16 }
%struct.ssl_primary_config = type { ptr, ptr, ptr, ptr, ptr, ptr, ptr, ptr, ptr, ptr, ptr, ptr, ptr, ptr, i8, i32, i8, i8 }
%struct.ssl_general_config = type { i32 }
%struct.Progress = type { i64, %struct.pgrs_dir, %struct.pgrs_dir, i64, i64, i32, i32, i64, i64, i64, i64, i64, i64, i64, i64, i64, %struct.curltime, %struct.curltime, %struct.curltime, %struct.curltime, %struct.curltime, [6 x i64], [6 x %struct.curltime], i32, i8 }
%struct.pgrs_dir = type { i64, i64, i64, %struct.pgrs_measure }
%struct.pgrs_measure = type { %struct.curltime, i64 }
%struct.UrlState = type { %struct.curltime, i64, i64, %struct.dynbuf, ptr, i64, ptr, i32, i32, i32, ptr, i32, i64, i32, ptr, %struct.digestdata, %struct.digestdata, %struct.auth, %struct.auth, %struct.Curl_async, ptr, i8, %struct.curltime, %struct.Curl_tree, %struct.Curl_llist, [15 x %struct.time_node], ptr, ptr, i64, i64, i64, i64, [32 x i8], i64, ptr, ptr, ptr, %struct.urlpieces, ptr, ptr, ptr, ptr, ptr, i64, %struct.dynbuf, %struct.Curl_llist, [2 x %struct.curl_header], ptr, i32, ptr, ptr, %struct.store_netrc, %struct.dynamically_allocated_data, i8, i8, i8, i8, i32 }
%struct.digestdata = type { ptr, ptr, ptr, ptr, ptr, ptr, i32, i8, i8 }
%struct.auth = type { i64, i64, i64, i8 }
%struct.Curl_async = type { ptr, ptr, ptr, ptr, i32, i32, i8 }
%struct.Curl_tree = type { ptr, ptr, ptr, ptr, %struct.curltime, ptr }
%struct.time_node = type { %struct.Curl_llist_node, %struct.curltime, i32 }
%struct.urlpieces = type { ptr, ptr, ptr, ptr, ptr, ptr, ptr, ptr }
%struct.dynbuf = type { ptr, i64, i64, i64 }
%struct.curl_header = type { ptr, ptr, i64, i64, i32, ptr }
%struct.store_netrc = type { %struct.dynbuf, ptr, i8 }
%struct.dynamically_allocated_data = type { ptr, ptr, ptr, ptr, ptr, ptr, ptr, ptr, ptr, ptr, ptr, ptr, ptr, ptr }
%struct.PureInfo = type { i32, i32, i32, i64, i64, i64, i64, i64, i64, i64, ptr, ptr, i64, i32, %struct.ip_quadruple, i32, ptr, i32, %struct.curl_certinfo, i32, i8 }
%struct.ip_quadruple = type { [46 x i8], [46 x i8], i32, i32 }
%struct.curl_certinfo = type { i32, ptr }
%struct.curl_tlssessioninfo = type { i32, ptr }
%struct.Curl_waitfds = type { ptr, i32, i32 }

; Function Attrs: nounwind uwtable
define i32 @curl_multi_waitfds(ptr noundef %0, ptr noundef %1, i32 noundef %2, ptr noundef %3) #0 {
  %5 = alloca i32, align 4
  %6 = alloca ptr, align 8
  %7 = alloca ptr, align 8
  %8 = alloca i32, align 4
  %9 = alloca ptr, align 8
  %10 = alloca %struct.Curl_waitfds, align 8
  %11 = alloca i32, align 4
  %12 = alloca ptr, align 8
  %13 = alloca ptr, align 8
  %14 = alloca i32, align 4
  %15 = alloca i32, align 4
  %16 = alloca ptr, align 8
  store ptr %0, ptr %6, align 8, !tbaa !7
  store ptr %1, ptr %7, align 8, !tbaa !164
  store i32 %2, ptr %8, align 4, !tbaa !30
  store ptr %3, ptr %9, align 8, !tbaa !156
  call void @llvm.lifetime.start.p0(i64 16, ptr %10) #9
  call void @llvm.lifetime.start.p0(i64 4, ptr %11) #9
  store i32 0, ptr %11, align 4, !tbaa !30
  call void @llvm.lifetime.start.p0(i64 8, ptr %12) #9
  call void @llvm.lifetime.start.p0(i64 8, ptr %13) #9
  %17 = load ptr, ptr %6, align 8, !tbaa !7
  store ptr %17, ptr %13, align 8, !tbaa !9
  call void @llvm.lifetime.start.p0(i64 4, ptr %14) #9
  store i32 0, ptr %14, align 4, !tbaa !30
  %18 = load ptr, ptr %7, align 8, !tbaa !164
  %19 = icmp ne ptr %18, null
  br i1 %19, label %27, label %20

20:                                               ; preds = %4
  %21 = load i32, ptr %8, align 4, !tbaa !30
  %22 = icmp ne i32 %21, 0
  br i1 %22, label %26, label %23

23:                                               ; preds = %20
  %24 = load ptr, ptr %9, align 8, !tbaa !156
  %25 = icmp ne ptr %24, null
  br i1 %25, label %27, label %26

26:                                               ; preds = %23, %20
  store i32 10, ptr %5, align 4
  store i32 1, ptr %15, align 4
  br label %90

27:                                               ; preds = %23, %4
  %28 = load ptr, ptr %13, align 8, !tbaa !9
  %29 = icmp ne ptr %28, null
  br i1 %29, label %30, label %35

30:                                               ; preds = %27
  %31 = load ptr, ptr %13, align 8, !tbaa !9
  %32 = getelementptr inbounds nuw %struct.Curl_multi, ptr %31, i32 0, i32 0
  %33 = load i32, ptr %32, align 8, !tbaa !11
  %34 = icmp eq i32 %33, 764702
  br i1 %34, label %36, label %35

35:                                               ; preds = %30, %27
  store i32 1, ptr %5, align 4
  store i32 1, ptr %15, align 4
  br label %90

36:                                               ; preds = %30
  %37 = load ptr, ptr %13, align 8, !tbaa !9
  %38 = getelementptr inbounds nuw %struct.Curl_multi, ptr %37, i32 0, i32 35
  %39 = load i8, ptr %38, align 1
  %40 = lshr i8 %39, 2
  %41 = and i8 %40, 1
  %42 = zext i8 %41 to i32
  %43 = icmp ne i32 %42, 0
  br i1 %43, label %44, label %45

44:                                               ; preds = %36
  store i32 8, ptr %5, align 4
  store i32 1, ptr %15, align 4
  br label %90

45:                                               ; preds = %36
  %46 = load ptr, ptr %7, align 8, !tbaa !164
  %47 = load i32, ptr %8, align 4, !tbaa !30
  call void @Curl_waitfds_init(ptr noundef %10, ptr noundef %46, i32 noundef %47)
  %48 = load ptr, ptr %13, align 8, !tbaa !9
  %49 = getelementptr inbounds nuw %struct.Curl_multi, ptr %48, i32 0, i32 4
  %50 = call ptr @Curl_llist_head(ptr noundef %49)
  store ptr %50, ptr %12, align 8, !tbaa !115
  br label %51

51:                                               ; preds = %65, %45
  %52 = load ptr, ptr %12, align 8, !tbaa !115
  %53 = icmp ne ptr %52, null
  br i1 %53, label %54, label %68

54:                                               ; preds = %51
  call void @llvm.lifetime.start.p0(i64 8, ptr %16) #9
  %55 = load ptr, ptr %12, align 8, !tbaa !115
  %56 = call ptr @Curl_node_elem(ptr noundef %55)
  store ptr %56, ptr %16, align 8, !tbaa !43
  %57 = load ptr, ptr %16, align 8, !tbaa !43
  %58 = load ptr, ptr %16, align 8, !tbaa !43
  %59 = getelementptr inbounds nuw %struct.Curl_easy, ptr %58, i32 0, i32 9
  call void @multi_getsock(ptr noundef %57, ptr noundef %59)
  %60 = load ptr, ptr %16, align 8, !tbaa !43
  %61 = getelementptr inbounds nuw %struct.Curl_easy, ptr %60, i32 0, i32 9
  %62 = call i32 @Curl_waitfds_add_ps(ptr noundef %10, ptr noundef %61)
  %63 = load i32, ptr %14, align 4, !tbaa !30
  %64 = add i32 %63, %62
  store i32 %64, ptr %14, align 4, !tbaa !30
  call void @llvm.lifetime.end.p0(i64 8, ptr %16) #9
  br label %65

65:                                               ; preds = %54
  %66 = load ptr, ptr %12, align 8, !tbaa !115
  %67 = call ptr @Curl_node_next(ptr noundef %66)
  store ptr %67, ptr %12, align 8, !tbaa !115
  br label %51, !llvm.loop !166

68:                                               ; preds = %51
  %69 = load ptr, ptr %13, align 8, !tbaa !9
  %70 = getelementptr inbounds nuw %struct.Curl_multi, ptr %69, i32 0, i32 24
  %71 = call i32 @Curl_cpool_add_waitfds(ptr noundef %70, ptr noundef %10)
  %72 = load i32, ptr %14, align 4, !tbaa !30
  %73 = add i32 %72, %71
  store i32 %73, ptr %14, align 4, !tbaa !30
  %74 = load i32, ptr %14, align 4, !tbaa !30
  %75 = getelementptr inbounds nuw %struct.Curl_waitfds, ptr %10, i32 0, i32 1
  %76 = load i32, ptr %75, align 8, !tbaa !167
  %77 = icmp ne i32 %74, %76
  br i1 %77, label %78, label %82

78:                                               ; preds = %68
  %79 = load ptr, ptr %7, align 8, !tbaa !164
  %80 = icmp ne ptr %79, null
  br i1 %80, label %81, label %82

81:                                               ; preds = %78
  store i32 3, ptr %11, align 4, !tbaa !30
  br label %82

82:                                               ; preds = %81, %78, %68
  %83 = load ptr, ptr %9, align 8, !tbaa !156
  %84 = icmp ne ptr %83, null
  br i1 %84, label %85, label %88

85:                                               ; preds = %82
  %86 = load i32, ptr %14, align 4, !tbaa !30
  %87 = load ptr, ptr %9, align 8, !tbaa !156
  store i32 %86, ptr %87, align 4, !tbaa !30
  br label %88

88:                                               ; preds = %85, %82
  %89 = load i32, ptr %11, align 4, !tbaa !30
  store i32 %89, ptr %5, align 4
  store i32 1, ptr %15, align 4
  br label %90

90:                                               ; preds = %88, %44, %35, %26
  call void @llvm.lifetime.end.p0(i64 4, ptr %14) #9
  call void @llvm.lifetime.end.p0(i64 8, ptr %13) #9
  call void @llvm.lifetime.end.p0(i64 8, ptr %12) #9
  call void @llvm.lifetime.end.p0(i64 4, ptr %11) #9
  call void @llvm.lifetime.end.p0(i64 16, ptr %10) #9
  %91 = load i32, ptr %5, align 4
  ret i32 %91
}