; Function Attrs: nounwind uwtable
define range(i32 0, 11) i32 @curl_multi_waitfds(ptr noundef %0, ptr noundef %1, i32 noundef %2, ptr noundef writeonly %3) local_unnamed_addr #0 {
  %5 = alloca %struct.Curl_waitfds, align 8
  call void @llvm.lifetime.start.p0(i64 16, ptr nonnull %5) #19
  %6 = icmp ne ptr %1, null
  br i1 %6, label %10, label %7

7:                                                ; preds = %4
  %8 = icmp eq i32 %2, 0
  %9 = icmp ne ptr %3, null
  %or.cond = and i1 %8, %9
  br i1 %or.cond, label %10, label %33

10:                                               ; preds = %7, %4
  %.not = icmp eq ptr %0, null
  br i1 %.not, label %33, label %11

11:                                               ; preds = %10
  %12 = load i32, ptr %0, align 8, !tbaa !7
  %13 = icmp eq i32 %12, 764702
  br i1 %13, label %14, label %33

14:                                               ; preds = %11
  %15 = getelementptr inbounds nuw i8, ptr %0, i64 649
  %16 = load i8, ptr %15, align 1
  %17 = and i8 %16, 4
  %.not33 = icmp eq i8 %17, 0
  br i1 %.not33, label %18, label %33

18:                                               ; preds = %14
  call void @Curl_waitfds_init(ptr noundef nonnull %5, ptr noundef %1, i32 noundef %2) #19
  %19 = getelementptr inbounds nuw i8, ptr %0, i64 48
  %20 = call ptr @Curl_llist_head(ptr noundef nonnull %19) #19
  %.not3436 = icmp eq ptr %20, null
  br i1 %.not3436, label %._crit_edge, label %.lr.ph

.lr.ph:                                           ; preds = %18, %.lr.ph
  %.02838 = phi i32 [ %24, %.lr.ph ], [ 0, %18 ]
  %.03037 = phi ptr [ %25, %.lr.ph ], [ %20, %18 ]
  %21 = call ptr @Curl_node_elem(ptr noundef nonnull %.03037) #19
  %22 = getelementptr inbounds nuw i8, ptr %21, i64 160
  call fastcc void @multi_getsock(ptr noundef %21, ptr noundef nonnull %22)
  %23 = call i32 @Curl_waitfds_add_ps(ptr noundef nonnull %5, ptr noundef nonnull %22) #19
  %24 = add i32 %23, %.02838
  %25 = call ptr @Curl_node_next(ptr noundef nonnull %.03037) #19
  %.not34 = icmp eq ptr %25, null
  br i1 %.not34, label %._crit_edge, label %.lr.ph, !llvm.loop !147

._crit_edge:                                      ; preds = %.lr.ph, %18
  %.028.lcssa = phi i32 [ 0, %18 ], [ %24, %.lr.ph ]
  %26 = getelementptr inbounds nuw i8, ptr %0, i64 416
  %27 = call i32 @Curl_cpool_add_waitfds(ptr noundef nonnull %26, ptr noundef nonnull %5) #19
  %28 = add i32 %27, %.028.lcssa
  %29 = getelementptr inbounds nuw i8, ptr %5, i64 8
  %30 = load i32, ptr %29, align 8, !tbaa !148
  %31 = icmp ne i32 %28, %30
  %or.cond3 = and i1 %6, %31
  %spec.select = select i1 %or.cond3, i32 3, i32 0
  %.not35 = icmp eq ptr %3, null
  br i1 %.not35, label %33, label %32

32:                                               ; preds = %._crit_edge
  store i32 %28, ptr %3, align 4, !tbaa !28
  br label %33

33:                                               ; preds = %._crit_edge, %32, %14, %10, %11, %7
  %.0 = phi i32 [ 10, %7 ], [ 1, %11 ], [ 1, %10 ], [ 8, %14 ], [ %spec.select, %32 ], [ %spec.select, %._crit_edge ]
  call void @llvm.lifetime.end.p0(i64 16, ptr nonnull %5) #19
  ret i32 %.0
}